target datalayout = "e-m:e-p270:32:32-p271:32:32-p272:64:64-i64:64-i128:128-f80:128-n8:16:32:64-S128"
target triple = "x86_64-pc-linux-gnu"

%"class.base::ProcessMetrics" = type <{ i32, i32, %"class.base::TimeTicks", i64, %"class.base::TimeTicks", i64, i32, [4 x i8] }>
%"class.base::TimeTicks" = type { %"class.base::time_internal::TimeBase" }
%"class.base::time_internal::TimeBase" = type { i64 }

; Function Attrs: mustprogress nounwind uwtable
define linkonce_odr void @_ZN4base13time_internal8TimeBaseINS_9TimeTicksEEC2El(ptr noundef nonnull align 8 dereferenceable(8) %0, i64 noundef %1) unnamed_addr #1 comdat align 2 {
  %3 = alloca ptr, align 8
  %4 = alloca i64, align 8
  store ptr %0, ptr %3, align 8, !tbaa !45
  store i64 %1, ptr %4, align 8, !tbaa !17
  %5 = load ptr, ptr %3, align 8
  %6 = getelementptr inbounds nuw %"class.base::time_internal::TimeBase", ptr %5, i32 0, i32 0
  %7 = load i64, ptr %4, align 8, !tbaa !17
  store i64 %7, ptr %6, align 8, !tbaa !47
  ret void
}

; Function Attrs: mustprogress uwtable
define linkonce_odr void @_ZN4base9TimeTicksC2Ev(ptr noundef nonnull align 8 dereferenceable(8) %0) unnamed_addr #0 comdat align 2 {
  %2 = alloca ptr, align 8
  store ptr %0, ptr %2, align 8, !tbaa !91
  %3 = load ptr, ptr %2, align 8
  call void @_ZN4base13time_internal8TimeBaseINS_9TimeTicksEEC2El(ptr noundef nonnull align 8 dereferenceable(8) %3, i64 noundef 0)
  ret void
}

; Function Attrs: mustprogress uwtable
define void @_ZN4base14ProcessMetricsC2Ei(ptr noundef nonnull align 8 dereferenceable(44) %0, i32 noundef %1) unnamed_addr #0 align 2 {
  %3 = alloca ptr, align 8
  %4 = alloca i32, align 4
  store ptr %0, ptr %3, align 8, !tbaa !7
  store i32 %1, ptr %4, align 4, !tbaa !3
  %5 = load ptr, ptr %3, align 8
  %6 = getelementptr inbounds nuw %"class.base::ProcessMetrics", ptr %5, i32 0, i32 0
  %7 = load i32, ptr %4, align 4, !tbaa !3
  store i32 %7, ptr %6, align 8, !tbaa !10
  %8 = getelementptr inbounds nuw %"class.base::ProcessMetrics", ptr %5, i32 0, i32 2
  call void @_ZN4base9TimeTicksC2Ev(ptr noundef nonnull align 8 dereferenceable(8) %8)
  %9 = getelementptr inbounds nuw %"class.base::ProcessMetrics", ptr %5, i32 0, i32 3
  store i64 0, ptr %9, align 8, !tbaa !88
  %10 = getelementptr inbounds nuw %"class.base::ProcessMetrics", ptr %5, i32 0, i32 4
  call void @_ZN4base9TimeTicksC2Ev(ptr noundef nonnull align 8 dereferenceable(8) %10)
  %11 = getelementptr inbounds nuw %"class.base::ProcessMetrics", ptr %5, i32 0, i32 5
  store i64 0, ptr %11, align 8, !tbaa !89
  %12 = getelementptr inbounds nuw %"class.base::ProcessMetrics", ptr %5, i32 0, i32 6
  store i32 0, ptr %12, align 8, !tbaa !36
  %13 = call noundef i32 @_ZN4base7SysInfo18NumberOfProcessorsEv()
  %14 = getelementptr inbounds nuw %"class.base::ProcessMetrics", ptr %5, i32 0, i32 1
  store i32 %13, ptr %14, align 4, !tbaa !90
  ret void
}