; Function Attrs: mustprogress uwtable
define void @_ZN4base14ProcessMetricsC2Ei(ptr noundef nonnull writeonly align 8 captures(none) dereferenceable(44) initializes((0, 44)) %0, i32 noundef %1) unnamed_addr #0 align 2 {
  store i32 %1, ptr %0, align 8, !tbaa !11
  %3 = getelementptr inbounds nuw i8, ptr %0, i64 8
  tail call void @llvm.memset.p0.i64(ptr noundef nonnull align 8 dereferenceable(36) %3, i8 0, i64 36, i1 false)
  %4 = tail call noundef i32 @_ZN4base7SysInfo18NumberOfProcessorsEv()
  %5 = getelementptr inbounds nuw i8, ptr %0, i64 4
  store i32 %4, ptr %5, align 4, !tbaa !60
  ret void
}